target datalayout = "e-m:e-p270:32:32-p271:32:32-p272:64:64-i64:64-i128:128-f80:128-n8:16:32:64-S128"
target triple = "x86_64-pc-linux-gnu"

%class.SpaceInfo = type { ptr, ptr, ptr, ptr, %class.SplitInfo }
%class.SplitInfo = type { i64, i64, ptr, i32, ptr, ptr }
%class.MemRegion = type { ptr, i64 }
%class.ParallelCompactData = type { ptr, ptr, i64, ptr, i64 }
%"class.ParallelCompactData::RegionData" = type <{ ptr, i64, ptr, i32, i32, i32, [4 x i8] }>
%class.MutableSpace = type { ptr, %class.MemRegion, i64, ptr, ptr, ptr }
%class.MoveAndUpdateClosure = type { ptr, ptr, i64, ptr, ptr, ptr, i64 }

@_ZN17PSParallelCompact11_space_infoE = hidden global [4 x %class.SpaceInfo] zeroinitializer, align 16
@_ZN17PSParallelCompact13_summary_dataE = hidden global %class.ParallelCompactData zeroinitializer, align 8

; Function Attrs: mustprogress nounwind uwtable
define linkonce_odr hidden noundef i64 @_Z13pointer_deltaPKP12HeapWordImplS2_(ptr noundef %0, ptr noundef %1) #1 comdat {
  %3 = alloca ptr, align 8
  %4 = alloca ptr, align 8
  store ptr %0, ptr %3, align 8
  store ptr %1, ptr %4, align 8
  %5 = load ptr, ptr %3, align 8
  %6 = load ptr, ptr %4, align 8
  %7 = call noundef i64 @_Z13pointer_deltaPVKvS0_m(ptr noundef %5, ptr noundef %6, i64 noundef 8)
  ret i64 %7
}

; Function Attrs: mustprogress nounwind uwtable
define linkonce_odr hidden noundef i64 @_Z13pointer_deltaPVKvS0_m(ptr noundef %0, ptr noundef %1, i64 noundef %2) #1 comdat {
  %4 = alloca ptr, align 8
  %5 = alloca ptr, align 8
  %6 = alloca i64, align 8
  store ptr %0, ptr %4, align 8
  store ptr %1, ptr %5, align 8
  store i64 %2, ptr %6, align 8
  %7 = load ptr, ptr %4, align 8
  %8 = ptrtoint ptr %7 to i64
  %9 = load ptr, ptr %5, align 8
  %10 = ptrtoint ptr %9 to i64
  %11 = sub i64 %8, %10
  %12 = load i64, ptr %6, align 8
  %13 = udiv i64 %11, %12
  ret i64 %13
}

; Function Attrs: mustprogress nounwind uwtable
define linkonce_odr hidden noundef i64 @_ZNK19ParallelCompactData10RegionData16partial_obj_sizeEv(ptr noundef nonnull align 8 dereferenceable(36) %0) #1 comdat align 2 {
  %2 = alloca ptr, align 8
  store ptr %0, ptr %2, align 8
  %3 = load ptr, ptr %2, align 8
  %4 = getelementptr inbounds %"class.ParallelCompactData::RegionData", ptr %3, i32 0, i32 3
  %5 = load i32, ptr %4, align 8
  %6 = zext i32 %5 to i64
  ret i64 %6
}

; Function Attrs: mustprogress nounwind uwtable
define linkonce_odr hidden noundef ptr @_ZNK19ParallelCompactData6regionEm(ptr noundef nonnull align 8 dereferenceable(40) %0, i64 noundef %1) #1 comdat align 2 {
  %3 = alloca ptr, align 8
  %4 = alloca i64, align 8
  store ptr %0, ptr %3, align 8
  store i64 %1, ptr %4, align 8
  %5 = load ptr, ptr %3, align 8
  %6 = getelementptr inbounds %class.ParallelCompactData, ptr %5, i32 0, i32 3
  %7 = load ptr, ptr %6, align 8
  %8 = load i64, ptr %4, align 8
  %9 = getelementptr inbounds %"class.ParallelCompactData::RegionData", ptr %7, i64 %8
  ret ptr %9
}

; Function Attrs: mustprogress nounwind uwtable
define linkonce_odr hidden noundef i64 @_ZNK19ParallelCompactData18addr_to_region_idxEPKP12HeapWordImpl(ptr noundef nonnull align 8 dereferenceable(40) %0, ptr noundef %1) #1 comdat align 2 {
  %3 = alloca ptr, align 8
  %4 = alloca ptr, align 8
  store ptr %0, ptr %3, align 8
  store ptr %1, ptr %4, align 8
  %5 = load ptr, ptr %3, align 8
  %6 = load ptr, ptr %4, align 8
  %7 = getelementptr inbounds %class.ParallelCompactData, ptr %5, i32 0, i32 0
  %8 = load ptr, ptr %7, align 8
  %9 = call noundef i64 @_Z13pointer_deltaPKP12HeapWordImplS2_(ptr noundef %6, ptr noundef %8)
  %10 = lshr i64 %9, 16
  ret i64 %10
}

; Function Attrs: mustprogress nounwind uwtable
define linkonce_odr hidden noundef ptr @_ZNK19ParallelCompactData17region_align_downEPP12HeapWordImpl(ptr noundef nonnull align 8 dereferenceable(40) %0, ptr noundef %1) #1 comdat align 2 {
  %3 = alloca ptr, align 8
  %4 = alloca ptr, align 8
  store ptr %0, ptr %3, align 8
  store ptr %1, ptr %4, align 8
  %5 = load ptr, ptr %4, align 8
  %6 = ptrtoint ptr %5 to i64
  %7 = and i64 %6, -524288
  %8 = inttoptr i64 %7 to ptr
  ret ptr %8
}

; Function Attrs: mustprogress nounwind uwtable
define linkonce_odr hidden noundef i64 @_ZNK19ParallelCompactData10RegionData13live_obj_sizeEv(ptr noundef nonnull align 8 dereferenceable(36) %0) #1 comdat align 2 {
  %2 = alloca ptr, align 8
  store ptr %0, ptr %2, align 8
  %3 = load ptr, ptr %2, align 8
  %4 = getelementptr inbounds %"class.ParallelCompactData::RegionData", ptr %3, i32 0, i32 4
  %5 = load volatile i32, ptr %4, align 4
  %6 = and i32 %5, 134217727
  %7 = zext i32 %6 to i64
  ret i64 %7
}

; Function Attrs: mustprogress nounwind uwtable
define linkonce_odr hidden noundef ptr @_ZNK12MutableSpace3topEv(ptr noundef nonnull align 8 dereferenceable(56) %0) #1 comdat align 2 {
  %2 = alloca ptr, align 8
  store ptr %0, ptr %2, align 8
  %3 = load ptr, ptr %2, align 8
  %4 = getelementptr inbounds %class.MutableSpace, ptr %3, i32 0, i32 4
  %5 = load volatile ptr, ptr %4, align 8
  ret ptr %5
}

; Function Attrs: mustprogress nounwind uwtable
define linkonce_odr hidden noundef ptr @_ZNK19ParallelCompactData10RegionData11destinationEv(ptr noundef nonnull align 8 dereferenceable(36) %0) #1 comdat align 2 {
  %2 = alloca ptr, align 8
  store ptr %0, ptr %2, align 8
  %3 = load ptr, ptr %2, align 8
  %4 = getelementptr inbounds %"class.ParallelCompactData::RegionData", ptr %3, i32 0, i32 0
  %5 = load ptr, ptr %4, align 8
  ret ptr %5
}

; Function Attrs: mustprogress nounwind uwtable
define linkonce_odr hidden noundef ptr @_ZNK12MutableSpace6bottomEv(ptr noundef nonnull align 8 dereferenceable(56) %0) #1 comdat align 2 {
  %2 = alloca ptr, align 8
  store ptr %0, ptr %2, align 8
  %3 = load ptr, ptr %2, align 8
  %4 = getelementptr inbounds %class.MutableSpace, ptr %3, i32 0, i32 3
  %5 = load ptr, ptr %4, align 8
  ret ptr %5
}

; Function Attrs: mustprogress nounwind uwtable
define linkonce_odr hidden noundef ptr @_ZNK9SpaceInfo5spaceEv(ptr noundef nonnull align 8 dereferenceable(80) %0) #1 comdat align 2 {
  %2 = alloca ptr, align 8
  store ptr %0, ptr %2, align 8
  %3 = load ptr, ptr %2, align 8
  %4 = getelementptr inbounds %class.SpaceInfo, ptr %3, i32 0, i32 0
  %5 = load ptr, ptr %4, align 8
  ret ptr %5
}

; Function Attrs: mustprogress nounwind uwtable
define linkonce_odr hidden noundef ptr @_ZNK20MoveAndUpdateClosure11destinationEv(ptr noundef nonnull align 8 dereferenceable(56) %0) #1 comdat align 2 {
  %2 = alloca ptr, align 8
  store ptr %0, ptr %2, align 8
  %3 = load ptr, ptr %2, align 8
  %4 = getelementptr inbounds %class.MoveAndUpdateClosure, ptr %3, i32 0, i32 4
  %5 = load ptr, ptr %4, align 8
  ret ptr %5
}

; Function Attrs: mustprogress nounwind uwtable
define linkonce_odr hidden void @_ZN20MoveAndUpdateClosure10set_sourceEPP12HeapWordImpl(ptr noundef nonnull align 8 dereferenceable(56) %0, ptr noundef %1) #1 comdat align 2 {
  %3 = alloca ptr, align 8
  %4 = alloca ptr, align 8
  store ptr %0, ptr %3, align 8
  store ptr %1, ptr %4, align 8
  %5 = load ptr, ptr %3, align 8
  %6 = load ptr, ptr %4, align 8
  %7 = getelementptr inbounds %class.MoveAndUpdateClosure, ptr %5, i32 0, i32 3
  store ptr %6, ptr %7, align 8
  ret void
}

; Function Attrs: mustprogress nounwind uwtable
define linkonce_odr hidden noundef ptr @_ZNK20MoveAndUpdateClosure6sourceEv(ptr noundef nonnull align 8 dereferenceable(56) %0) #1 comdat align 2 {
  %2 = alloca ptr, align 8
  store ptr %0, ptr %2, align 8
  %3 = load ptr, ptr %2, align 8
  %4 = getelementptr inbounds %class.MoveAndUpdateClosure, ptr %3, i32 0, i32 3
  %5 = load ptr, ptr %4, align 8
  ret ptr %5
}

; Function Attrs: mustprogress nounwind uwtable
define linkonce_odr hidden noundef ptr @_ZNK19ParallelCompactData14region_to_addrEm(ptr noundef nonnull align 8 dereferenceable(40) %0, i64 noundef %1) #1 comdat align 2 {
  %3 = alloca ptr, align 8
  %4 = alloca i64, align 8
  store ptr %0, ptr %3, align 8
  store i64 %1, ptr %4, align 8
  %5 = load ptr, ptr %3, align 8
  %6 = getelementptr inbounds %class.ParallelCompactData, ptr %5, i32 0, i32 0
  %7 = load ptr, ptr %6, align 8
  %8 = load i64, ptr %4, align 8
  %9 = shl i64 %8, 16
  %10 = getelementptr inbounds ptr, ptr %7, i64 %9
  ret ptr %10
}

; Function Attrs: mustprogress nounwind uwtable
define linkonce_odr hidden noundef i64 @_ZNK19ParallelCompactData6regionEPKNS_10RegionDataE(ptr noundef nonnull align 8 dereferenceable(40) %0, ptr noundef %1) #1 comdat align 2 {
  %3 = alloca ptr, align 8
  %4 = alloca ptr, align 8
  store ptr %0, ptr %3, align 8
  store ptr %1, ptr %4, align 8
  %5 = load ptr, ptr %3, align 8
  %6 = load ptr, ptr %4, align 8
  %7 = getelementptr inbounds %class.ParallelCompactData, ptr %5, i32 0, i32 3
  %8 = load ptr, ptr %7, align 8
  %9 = call noundef i64 @_Z13pointer_deltaPVKvS0_m(ptr noundef %6, ptr noundef %8, i64 noundef 40)
  ret i64 %9
}

; Function Attrs: mustprogress nounwind uwtable
define linkonce_odr hidden noundef i64 @_ZNK19ParallelCompactData10RegionData9data_sizeEv(ptr noundef nonnull align 8 dereferenceable(36) %0) #1 comdat align 2 {
  %2 = alloca ptr, align 8
  store ptr %0, ptr %2, align 8
  %3 = load ptr, ptr %2, align 8
  %4 = call noundef i64 @_ZNK19ParallelCompactData10RegionData16partial_obj_sizeEv(ptr noundef nonnull align 8 dereferenceable(36) %3)
  %5 = call noundef i64 @_ZNK19ParallelCompactData10RegionData13live_obj_sizeEv(ptr noundef nonnull align 8 dereferenceable(36) %3)
  %6 = add i64 %4, %5
  ret i64 %6
}

; Function Attrs: mustprogress nounwind uwtable
define linkonce_odr hidden noundef ptr @_ZNK19ParallelCompactData18addr_to_region_ptrEPKP12HeapWordImpl(ptr noundef nonnull align 8 dereferenceable(40) %0, ptr noundef %1) #1 comdat align 2 {
  %3 = alloca ptr, align 8
  %4 = alloca ptr, align 8
  store ptr %0, ptr %3, align 8
  store ptr %1, ptr %4, align 8
  %5 = load ptr, ptr %3, align 8
  %6 = load ptr, ptr %4, align 8
  %7 = call noundef i64 @_ZNK19ParallelCompactData18addr_to_region_idxEPKP12HeapWordImpl(ptr noundef nonnull align 8 dereferenceable(40) %5, ptr noundef %6)
  %8 = call noundef ptr @_ZNK19ParallelCompactData6regionEm(ptr noundef nonnull align 8 dereferenceable(40) %5, i64 noundef %7)
  ret ptr %8
}

; Function Attrs: mustprogress nounwind uwtable
define linkonce_odr hidden noundef ptr @_ZNK19ParallelCompactData15region_align_upEPP12HeapWordImpl(ptr noundef nonnull align 8 dereferenceable(40) %0, ptr noundef %1) #1 comdat align 2 {
  %3 = alloca ptr, align 8
  %4 = alloca ptr, align 8
  store ptr %0, ptr %3, align 8
  store ptr %1, ptr %4, align 8
  %5 = load ptr, ptr %3, align 8
  %6 = load ptr, ptr %4, align 8
  %7 = getelementptr inbounds ptr, ptr %6, i64 65535
  %8 = call noundef ptr @_ZNK19ParallelCompactData17region_align_downEPP12HeapWordImpl(ptr noundef nonnull align 8 dereferenceable(40) %5, ptr noundef %7)
  ret ptr %8
}

; Function Attrs: mustprogress nounwind uwtable
define linkonce_odr hidden noundef nonnull align 8 dereferenceable(40) ptr @_ZN17PSParallelCompact12summary_dataEv() #1 comdat align 2 {
  ret ptr @_ZN17PSParallelCompact13_summary_dataE
}

; Function Attrs: mustprogress nounwind uwtable
define hidden noundef i64 @_ZN17PSParallelCompact15next_src_regionER20MoveAndUpdateClosureRNS_7SpaceIdERPP12HeapWordImplS6_(ptr noundef nonnull align 8 dereferenceable(56) %0, ptr noundef nonnull align 4 dereferenceable(4) %1, ptr noundef nonnull align 8 dereferenceable(8) %2, ptr noundef %3) #1 align 2 {
  %5 = alloca i64, align 8
  %6 = alloca ptr, align 8
  %7 = alloca ptr, align 8
  %8 = alloca ptr, align 8
  %9 = alloca ptr, align 8
  %10 = alloca ptr, align 8
  %11 = alloca i64, align 8
  %12 = alloca i64, align 8
  %13 = alloca ptr, align 8
  %14 = alloca ptr, align 8
  %15 = alloca ptr, align 8
  %16 = alloca ptr, align 8
  %17 = alloca ptr, align 8
  %18 = alloca i32, align 4
  %19 = alloca ptr, align 8
  %20 = alloca ptr, align 8
  %21 = alloca ptr, align 8
  %22 = alloca ptr, align 8
  %23 = alloca ptr, align 8
  %24 = alloca ptr, align 8
  %25 = alloca ptr, align 8
  %26 = alloca i64, align 8
  store ptr %0, ptr %6, align 8
  store ptr %1, ptr %7, align 8
  store ptr %2, ptr %8, align 8
  store ptr %3, ptr %9, align 8
  %27 = call noundef nonnull align 8 dereferenceable(40) ptr @_ZN17PSParallelCompact12summary_dataEv()
  store ptr %27, ptr %10, align 8
  store i64 65536, ptr %11, align 8
  store i64 0, ptr %12, align 8
  %28 = load ptr, ptr %10, align 8
  %29 = load ptr, ptr %9, align 8
  %30 = call noundef ptr @_ZNK19ParallelCompactData15region_align_upEPP12HeapWordImpl(ptr noundef nonnull align 8 dereferenceable(40) %28, ptr noundef %29)
  store ptr %30, ptr %13, align 8
  %31 = load ptr, ptr %10, align 8
  %32 = load ptr, ptr %13, align 8
  %33 = call noundef ptr @_ZNK19ParallelCompactData18addr_to_region_ptrEPKP12HeapWordImpl(ptr noundef nonnull align 8 dereferenceable(40) %31, ptr noundef %32)
  store ptr %33, ptr %14, align 8
  %34 = load ptr, ptr %10, align 8
  %35 = load ptr, ptr %8, align 8
  %36 = load ptr, ptr %35, align 8
  %37 = call noundef ptr @_ZNK19ParallelCompactData15region_align_upEPP12HeapWordImpl(ptr noundef nonnull align 8 dereferenceable(40) %34, ptr noundef %36)
  store ptr %37, ptr %15, align 8
  %38 = load ptr, ptr %10, align 8
  %39 = load ptr, ptr %15, align 8
  %40 = call noundef ptr @_ZNK19ParallelCompactData18addr_to_region_ptrEPKP12HeapWordImpl(ptr noundef nonnull align 8 dereferenceable(40) %38, ptr noundef %39)
  store ptr %40, ptr %16, align 8
  br label %41

41:                                               ; preds = %51, %4
  %42 = load ptr, ptr %14, align 8
  %43 = load ptr, ptr %16, align 8
  %44 = icmp ult ptr %42, %43
  br i1 %44, label %45, label %49

45:                                               ; preds = %41
  %46 = load ptr, ptr %14, align 8
  %47 = call noundef i64 @_ZNK19ParallelCompactData10RegionData9data_sizeEv(ptr noundef nonnull align 8 dereferenceable(36) %46)
  %48 = icmp eq i64 %47, 0
  br label %49

49:                                               ; preds = %45, %41
  %50 = phi i1 [ false, %41 ], [ %48, %45 ]
  br i1 %50, label %51, label %54

51:                                               ; preds = %49
  %52 = load ptr, ptr %14, align 8
  %53 = getelementptr inbounds %"class.ParallelCompactData::RegionData", ptr %52, i32 1
  store ptr %53, ptr %14, align 8
  br label %41, !llvm.loop !33

54:                                               ; preds = %49
  %55 = load ptr, ptr %14, align 8
  %56 = load ptr, ptr %16, align 8
  %57 = icmp ult ptr %55, %56
  br i1 %57, label %58, label %74

58:                                               ; preds = %54
  %59 = load ptr, ptr %10, align 8
  %60 = load ptr, ptr %14, align 8
  %61 = call noundef i64 @_ZNK19ParallelCompactData6regionEPKNS_10RegionDataE(ptr noundef nonnull align 8 dereferenceable(40) %59, ptr noundef %60)
  store i64 %61, ptr %12, align 8
  %62 = load ptr, ptr %10, align 8
  %63 = load i64, ptr %12, align 8
  %64 = call noundef ptr @_ZNK19ParallelCompactData14region_to_addrEm(ptr noundef nonnull align 8 dereferenceable(40) %62, i64 noundef %63)
  store ptr %64, ptr %17, align 8
  %65 = load ptr, ptr %17, align 8
  %66 = load ptr, ptr %6, align 8
  %67 = call noundef ptr @_ZNK20MoveAndUpdateClosure6sourceEv(ptr noundef nonnull align 8 dereferenceable(56) %66)
  %68 = icmp ugt ptr %65, %67
  br i1 %68, label %69, label %72

69:                                               ; preds = %58
  %70 = load ptr, ptr %6, align 8
  %71 = load ptr, ptr %17, align 8
  call void @_ZN20MoveAndUpdateClosure10set_sourceEPP12HeapWordImpl(ptr noundef nonnull align 8 dereferenceable(56) %70, ptr noundef %71)
  br label %72

72:                                               ; preds = %69, %58
  %73 = load i64, ptr %12, align 8
  store i64 %73, ptr %5, align 8
  br label %137

74:                                               ; preds = %54
  %75 = load ptr, ptr %7, align 8
  %76 = load i32, ptr %75, align 4
  %77 = add nsw i32 %76, 1
  store i32 %77, ptr %18, align 4
  %78 = load ptr, ptr %6, align 8
  %79 = call noundef ptr @_ZNK20MoveAndUpdateClosure11destinationEv(ptr noundef nonnull align 8 dereferenceable(56) %78)
  store ptr %79, ptr %19, align 8
  br label %80

80:                                               ; preds = %132, %74
  %81 = load i32, ptr %18, align 4
  %82 = zext i32 %81 to i64
  %83 = getelementptr inbounds [4 x %class.SpaceInfo], ptr @_ZN17PSParallelCompact11_space_infoE, i64 0, i64 %82
  %84 = call noundef ptr @_ZNK9SpaceInfo5spaceEv(ptr noundef nonnull align 8 dereferenceable(80) %83)
  store ptr %84, ptr %20, align 8
  %85 = load ptr, ptr %20, align 8
  %86 = call noundef ptr @_ZNK12MutableSpace6bottomEv(ptr noundef nonnull align 8 dereferenceable(56) %85)
  store ptr %86, ptr %21, align 8
  %87 = load ptr, ptr %10, align 8
  %88 = load ptr, ptr %21, align 8
  %89 = call noundef ptr @_ZNK19ParallelCompactData18addr_to_region_ptrEPKP12HeapWordImpl(ptr noundef nonnull align 8 dereferenceable(40) %87, ptr noundef %88)
  store ptr %89, ptr %22, align 8
  %90 = load ptr, ptr %22, align 8
  %91 = call noundef ptr @_ZNK19ParallelCompactData10RegionData11destinationEv(ptr noundef nonnull align 8 dereferenceable(36) %90)
  %92 = load ptr, ptr %21, align 8
  %93 = icmp ne ptr %91, %92
  br i1 %93, label %94, label %131

94:                                               ; preds = %80
  %95 = load ptr, ptr %10, align 8
  %96 = load ptr, ptr %20, align 8
  %97 = call noundef ptr @_ZNK12MutableSpace3topEv(ptr noundef nonnull align 8 dereferenceable(56) %96)
  %98 = call noundef ptr @_ZNK19ParallelCompactData15region_align_upEPP12HeapWordImpl(ptr noundef nonnull align 8 dereferenceable(40) %95, ptr noundef %97)
  store ptr %98, ptr %23, align 8
  %99 = load ptr, ptr %10, align 8
  %100 = load ptr, ptr %23, align 8
  %101 = call noundef ptr @_ZNK19ParallelCompactData18addr_to_region_ptrEPKP12HeapWordImpl(ptr noundef nonnull align 8 dereferenceable(40) %99, ptr noundef %100)
  store ptr %101, ptr %24, align 8
  %102 = load ptr, ptr %22, align 8
  store ptr %102, ptr %25, align 8
  br label %103

103:                                              ; preds = %127, %94
  %104 = load ptr, ptr %25, align 8
  %105 = load ptr, ptr %24, align 8
  %106 = icmp ult ptr %104, %105
  br i1 %106, label %107, label %130

107:                                              ; preds = %103
  %108 = load ptr, ptr %25, align 8
  %109 = call noundef i64 @_ZNK19ParallelCompactData10RegionData13live_obj_sizeEv(ptr noundef nonnull align 8 dereferenceable(36) %108)
  %110 = icmp ugt i64 %109, 0
  br i1 %110, label %111, label %125

111:                                              ; preds = %107
  %112 = load i32, ptr %18, align 4
  %113 = load ptr, ptr %7, align 8
  store i32 %112, ptr %113, align 4
  %114 = load ptr, ptr %20, align 8
  %115 = call noundef ptr @_ZNK12MutableSpace3topEv(ptr noundef nonnull align 8 dereferenceable(56) %114)
  %116 = load ptr, ptr %8, align 8
  store ptr %115, ptr %116, align 8
  %117 = load ptr, ptr %10, align 8
  %118 = load ptr, ptr %25, align 8
  %119 = call noundef i64 @_ZNK19ParallelCompactData6regionEPKNS_10RegionDataE(ptr noundef nonnull align 8 dereferenceable(40) %117, ptr noundef %118)
  store i64 %119, ptr %26, align 8
  %120 = load ptr, ptr %6, align 8
  %121 = load ptr, ptr %10, align 8
  %122 = load i64, ptr %26, align 8
  %123 = call noundef ptr @_ZNK19ParallelCompactData14region_to_addrEm(ptr noundef nonnull align 8 dereferenceable(40) %121, i64 noundef %122)
  call void @_ZN20MoveAndUpdateClosure10set_sourceEPP12HeapWordImpl(ptr noundef nonnull align 8 dereferenceable(56) %120, ptr noundef %123)
  %124 = load i64, ptr %26, align 8
  store i64 %124, ptr %5, align 8
  br label %137

125:                                              ; preds = %107
  br label %126

126:                                              ; preds = %125
  br label %127

127:                                              ; preds = %126
  %128 = load ptr, ptr %25, align 8
  %129 = getelementptr inbounds %"class.ParallelCompactData::RegionData", ptr %128, i32 1
  store ptr %129, ptr %25, align 8
  br label %103, !llvm.loop !34

130:                                              ; preds = %103
  br label %131

131:                                              ; preds = %130, %80
  br label %132

132:                                              ; preds = %131
  %133 = load i32, ptr %18, align 4
  %134 = add i32 %133, 1
  store i32 %134, ptr %18, align 4
  %135 = icmp ult i32 %134, 4
  br i1 %135, label %80, label %136, !llvm.loop !35

136:                                              ; preds = %132
  store i64 0, ptr %5, align 8
  br label %137

137:                                              ; preds = %136, %111, %72
  %138 = load i64, ptr %5, align 8
  ret i64 %138
}