; Function Attrs: mustprogress nofree norecurse nounwind uwtable
define hidden noundef i64 @_ZN17PSParallelCompact15next_src_regionER20MoveAndUpdateClosureRNS_7SpaceIdERPP12HeapWordImplS6_(ptr nocapture noundef nonnull align 8 dereferenceable(56) %0, ptr nocapture noundef nonnull align 4 dereferenceable(4) %1, ptr nocapture noundef nonnull align 8 dereferenceable(8) %2, ptr noundef %3) local_unnamed_addr #8 align 2 {
  %5 = getelementptr inbounds i8, ptr %3, i64 524280
  %6 = ptrtoint ptr %5 to i64
  %7 = and i64 %6, -524288
  %8 = load ptr, ptr @_ZN17PSParallelCompact13_summary_dataE, align 8
  %9 = ptrtoint ptr %8 to i64
  %10 = sub i64 %7, %9
  %11 = lshr i64 %10, 19
  %12 = load ptr, ptr getelementptr inbounds (i8, ptr @_ZN17PSParallelCompact13_summary_dataE, i64 24), align 8
  %13 = load ptr, ptr %2, align 8
  %14 = getelementptr inbounds i8, ptr %13, i64 524280
  %15 = ptrtoint ptr %14 to i64
  %16 = and i64 %15, -524288
  %17 = sub i64 %16, %9
  %18 = lshr i64 %17, 19
  %19 = getelementptr inbounds %"class.ParallelCompactData::RegionData", ptr %12, i64 %18
  %20 = icmp ult i64 %11, %18
  br i1 %20, label %.lr.ph.preheader, label %.critedge57

.lr.ph.preheader:                                 ; preds = %4
  %21 = getelementptr inbounds %"class.ParallelCompactData::RegionData", ptr %12, i64 %11
  br label %.lr.ph

.lr.ph:                                           ; preds = %.lr.ph.preheader, %29
  %.05263 = phi ptr [ %30, %29 ], [ %21, %.lr.ph.preheader ]
  %22 = getelementptr inbounds i8, ptr %.05263, i64 24
  %23 = load i32, ptr %22, align 8
  %24 = getelementptr inbounds i8, ptr %.05263, i64 28
  %25 = load volatile i32, ptr %24, align 4
  %26 = and i32 %25, 134217727
  %27 = or i32 %26, %23
  %28 = icmp eq i32 %27, 0
  br i1 %28, label %29, label %.critedge

29:                                               ; preds = %.lr.ph
  %30 = getelementptr inbounds i8, ptr %.05263, i64 40
  %31 = icmp ult ptr %30, %19
  br i1 %31, label %.lr.ph, label %.critedge57, !llvm.loop !44

.critedge:                                        ; preds = %.lr.ph
  %32 = ptrtoint ptr %.05263 to i64
  %33 = ptrtoint ptr %12 to i64
  %34 = sub i64 %32, %33
  %35 = udiv i64 %34, 40
  %.idx.i = shl i64 %35, 19
  %36 = getelementptr inbounds i8, ptr %8, i64 %.idx.i
  %37 = getelementptr inbounds i8, ptr %0, i64 24
  %38 = load ptr, ptr %37, align 8
  %39 = icmp ugt ptr %36, %38
  br i1 %39, label %40, label %.loopexit59

40:                                               ; preds = %.critedge
  store ptr %36, ptr %37, align 8
  br label %.loopexit59

.critedge57:                                      ; preds = %29, %4
  %41 = load i32, ptr %1, align 4
  %42 = add nsw i32 %41, 1
  br label %43

43:                                               ; preds = %.loopexit, %.critedge57
  %.053 = phi i32 [ %42, %.critedge57 ], [ %81, %.loopexit ]
  %44 = zext i32 %.053 to i64
  %45 = getelementptr inbounds [4 x %class.SpaceInfo], ptr @_ZN17PSParallelCompact11_space_infoE, i64 0, i64 %44
  %46 = load ptr, ptr %45, align 16
  %47 = getelementptr inbounds i8, ptr %46, i64 32
  %48 = load ptr, ptr %47, align 8
  %49 = ptrtoint ptr %48 to i64
  %50 = sub i64 %49, %9
  %51 = lshr i64 %50, 19
  %52 = getelementptr inbounds %"class.ParallelCompactData::RegionData", ptr %12, i64 %51
  %53 = load ptr, ptr %52, align 8
  %.not = icmp eq ptr %53, %48
  br i1 %.not, label %.loopexit, label %54

54:                                               ; preds = %43
  %55 = getelementptr inbounds i8, ptr %46, i64 40
  %56 = load volatile ptr, ptr %55, align 8
  %57 = getelementptr inbounds i8, ptr %56, i64 524280
  %58 = ptrtoint ptr %57 to i64
  %59 = and i64 %58, -524288
  %60 = sub i64 %59, %9
  %61 = lshr i64 %60, 19
  %62 = getelementptr inbounds %"class.ParallelCompactData::RegionData", ptr %12, i64 %61
  %63 = icmp ult i64 %51, %61
  br i1 %63, label %.lr.ph65, label %.loopexit

.lr.ph65:                                         ; preds = %54, %78
  %.05164 = phi ptr [ %79, %78 ], [ %52, %54 ]
  %64 = getelementptr inbounds i8, ptr %.05164, i64 28
  %65 = load volatile i32, ptr %64, align 4
  %66 = and i32 %65, 134217727
  %.not56 = icmp eq i32 %66, 0
  br i1 %.not56, label %78, label %67

67:                                               ; preds = %.lr.ph65
  %68 = getelementptr inbounds i8, ptr %46, i64 40
  store i32 %.053, ptr %1, align 4
  %69 = load volatile ptr, ptr %68, align 8
  store ptr %69, ptr %2, align 8
  %70 = load ptr, ptr getelementptr inbounds (i8, ptr @_ZN17PSParallelCompact13_summary_dataE, i64 24), align 8
  %71 = ptrtoint ptr %.05164 to i64
  %72 = ptrtoint ptr %70 to i64
  %73 = sub i64 %71, %72
  %74 = udiv i64 %73, 40
  %75 = load ptr, ptr @_ZN17PSParallelCompact13_summary_dataE, align 8
  %.idx.i58 = shl i64 %74, 19
  %76 = getelementptr inbounds i8, ptr %75, i64 %.idx.i58
  %77 = getelementptr inbounds i8, ptr %0, i64 24
  store ptr %76, ptr %77, align 8
  br label %.loopexit59

78:                                               ; preds = %.lr.ph65
  %79 = getelementptr inbounds i8, ptr %.05164, i64 40
  %80 = icmp ult ptr %79, %62
  br i1 %80, label %.lr.ph65, label %.loopexit, !llvm.loop !45

.loopexit:                                        ; preds = %78, %54, %43
  %81 = add i32 %.053, 1
  %82 = icmp ult i32 %81, 4
  br i1 %82, label %43, label %.loopexit59, !llvm.loop !46

.loopexit59:                                      ; preds = %.loopexit, %.critedge, %40, %67
  %.0 = phi i64 [ %74, %67 ], [ %35, %40 ], [ %35, %.critedge ], [ 0, %.loopexit ]
  ret i64 %.0
}